target datalayout = "e-m:e-p270:32:32-p271:32:32-p272:64:64-i64:64-i128:128-f80:128-n8:16:32:64-S128"
target triple = "x86_64-pc-linux-gnu"

%struct.gz_state = type { %struct.gzFile_s, i32, i32, ptr, i32, i32, ptr, ptr, i32, i32, i64, i32, i32, i32, i32, i32, i64, i32, i32, ptr, %struct.z_stream_s }
%struct.gzFile_s = type { i32, ptr, i64 }
%struct.z_stream_s = type { ptr, i32, i64, ptr, i32, i64, ptr, ptr, ptr, ptr, ptr, i32, i64, i64 }

@.str.5 = private unnamed_addr constant [14 x i8] c"out of memory\00", align 1
@.str.7 = private unnamed_addr constant [15 x i8] c"1.3.1.1-motley\00", align 1

; Function Attrs: nounwind uwtable
define internal i32 @gz_look(ptr noundef %0) #0 {
  %2 = alloca i32, align 4
  %3 = alloca ptr, align 8
  %4 = alloca ptr, align 8
  %5 = alloca i32, align 4
  store ptr %0, ptr %3, align 8, !tbaa !8
  call void @llvm.lifetime.start.p0(i64 8, ptr %4) #8
  %6 = load ptr, ptr %3, align 8, !tbaa !8
  %7 = getelementptr inbounds nuw %struct.gz_state, ptr %6, i32 0, i32 20
  store ptr %7, ptr %4, align 8, !tbaa !38
  %8 = load ptr, ptr %3, align 8, !tbaa !8
  %9 = getelementptr inbounds nuw %struct.gz_state, ptr %8, i32 0, i32 4
  %10 = load i32, ptr %9, align 8, !tbaa !28
  %11 = icmp eq i32 %10, 0
  br i1 %11, label %12, label %81

12:                                               ; preds = %1
  %13 = load ptr, ptr %3, align 8, !tbaa !8
  %14 = getelementptr inbounds nuw %struct.gz_state, ptr %13, i32 0, i32 5
  %15 = load i32, ptr %14, align 4, !tbaa !40
  %16 = zext i32 %15 to i64
  %17 = call noalias ptr @malloc(i64 noundef %16) #9
  %18 = load ptr, ptr %3, align 8, !tbaa !8
  %19 = getelementptr inbounds nuw %struct.gz_state, ptr %18, i32 0, i32 6
  store ptr %17, ptr %19, align 8, !tbaa !41
  %20 = load ptr, ptr %3, align 8, !tbaa !8
  %21 = getelementptr inbounds nuw %struct.gz_state, ptr %20, i32 0, i32 5
  %22 = load i32, ptr %21, align 4, !tbaa !40
  %23 = shl i32 %22, 1
  %24 = zext i32 %23 to i64
  %25 = call noalias ptr @malloc(i64 noundef %24) #9
  %26 = load ptr, ptr %3, align 8, !tbaa !8
  %27 = getelementptr inbounds nuw %struct.gz_state, ptr %26, i32 0, i32 7
  store ptr %25, ptr %27, align 8, !tbaa !35
  %28 = load ptr, ptr %3, align 8, !tbaa !8
  %29 = getelementptr inbounds nuw %struct.gz_state, ptr %28, i32 0, i32 6
  %30 = load ptr, ptr %29, align 8, !tbaa !41
  %31 = icmp eq ptr %30, null
  br i1 %31, label %37, label %32

32:                                               ; preds = %12
  %33 = load ptr, ptr %3, align 8, !tbaa !8
  %34 = getelementptr inbounds nuw %struct.gz_state, ptr %33, i32 0, i32 7
  %35 = load ptr, ptr %34, align 8, !tbaa !35
  %36 = icmp eq ptr %35, null
  br i1 %36, label %37, label %45

37:                                               ; preds = %32, %12
  %38 = load ptr, ptr %3, align 8, !tbaa !8
  %39 = getelementptr inbounds nuw %struct.gz_state, ptr %38, i32 0, i32 7
  %40 = load ptr, ptr %39, align 8, !tbaa !35
  call void @free(ptr noundef %40) #8
  %41 = load ptr, ptr %3, align 8, !tbaa !8
  %42 = getelementptr inbounds nuw %struct.gz_state, ptr %41, i32 0, i32 6
  %43 = load ptr, ptr %42, align 8, !tbaa !41
  call void @free(ptr noundef %43) #8
  %44 = load ptr, ptr %3, align 8, !tbaa !8
  call void @gz_error(ptr noundef %44, i32 noundef -4, ptr noundef @.str.5)
  store i32 -1, ptr %2, align 4
  store i32 1, ptr %5, align 4
  br label %169

45:                                               ; preds = %32
  %46 = load ptr, ptr %3, align 8, !tbaa !8
  %47 = getelementptr inbounds nuw %struct.gz_state, ptr %46, i32 0, i32 5
  %48 = load i32, ptr %47, align 4, !tbaa !40
  %49 = load ptr, ptr %3, align 8, !tbaa !8
  %50 = getelementptr inbounds nuw %struct.gz_state, ptr %49, i32 0, i32 4
  store i32 %48, ptr %50, align 8, !tbaa !28
  %51 = load ptr, ptr %3, align 8, !tbaa !8
  %52 = getelementptr inbounds nuw %struct.gz_state, ptr %51, i32 0, i32 20
  %53 = getelementptr inbounds nuw %struct.z_stream_s, ptr %52, i32 0, i32 8
  store ptr null, ptr %53, align 8, !tbaa !42
  %54 = load ptr, ptr %3, align 8, !tbaa !8
  %55 = getelementptr inbounds nuw %struct.gz_state, ptr %54, i32 0, i32 20
  %56 = getelementptr inbounds nuw %struct.z_stream_s, ptr %55, i32 0, i32 9
  store ptr null, ptr %56, align 8, !tbaa !43
  %57 = load ptr, ptr %3, align 8, !tbaa !8
  %58 = getelementptr inbounds nuw %struct.gz_state, ptr %57, i32 0, i32 20
  %59 = getelementptr inbounds nuw %struct.z_stream_s, ptr %58, i32 0, i32 10
  store ptr null, ptr %59, align 8, !tbaa !44
  %60 = load ptr, ptr %3, align 8, !tbaa !8
  %61 = getelementptr inbounds nuw %struct.gz_state, ptr %60, i32 0, i32 20
  %62 = getelementptr inbounds nuw %struct.z_stream_s, ptr %61, i32 0, i32 1
  store i32 0, ptr %62, align 8, !tbaa !25
  %63 = load ptr, ptr %3, align 8, !tbaa !8
  %64 = getelementptr inbounds nuw %struct.gz_state, ptr %63, i32 0, i32 20
  %65 = getelementptr inbounds nuw %struct.z_stream_s, ptr %64, i32 0, i32 0
  store ptr null, ptr %65, align 8, !tbaa !45
  %66 = load ptr, ptr %3, align 8, !tbaa !8
  %67 = getelementptr inbounds nuw %struct.gz_state, ptr %66, i32 0, i32 20
  %68 = call i32 @inflateInit2_(ptr noundef %67, i32 noundef 31, ptr noundef @.str.7, i32 noundef 112)
  %69 = icmp ne i32 %68, 0
  br i1 %69, label %70, label %80

70:                                               ; preds = %45
  %71 = load ptr, ptr %3, align 8, !tbaa !8
  %72 = getelementptr inbounds nuw %struct.gz_state, ptr %71, i32 0, i32 7
  %73 = load ptr, ptr %72, align 8, !tbaa !35
  call void @free(ptr noundef %73) #8
  %74 = load ptr, ptr %3, align 8, !tbaa !8
  %75 = getelementptr inbounds nuw %struct.gz_state, ptr %74, i32 0, i32 6
  %76 = load ptr, ptr %75, align 8, !tbaa !41
  call void @free(ptr noundef %76) #8
  %77 = load ptr, ptr %3, align 8, !tbaa !8
  %78 = getelementptr inbounds nuw %struct.gz_state, ptr %77, i32 0, i32 4
  store i32 0, ptr %78, align 8, !tbaa !28
  %79 = load ptr, ptr %3, align 8, !tbaa !8
  call void @gz_error(ptr noundef %79, i32 noundef -4, ptr noundef @.str.5)
  store i32 -1, ptr %2, align 4
  store i32 1, ptr %5, align 4
  br label %169

80:                                               ; preds = %45
  br label %81

81:                                               ; preds = %80, %1
  %82 = load ptr, ptr %4, align 8, !tbaa !38
  %83 = getelementptr inbounds nuw %struct.z_stream_s, ptr %82, i32 0, i32 1
  %84 = load i32, ptr %83, align 8, !tbaa !46
  %85 = icmp ult i32 %84, 2
  br i1 %85, label %86, label %98

86:                                               ; preds = %81
  %87 = load ptr, ptr %3, align 8, !tbaa !8
  %88 = call i32 @gz_avail(ptr noundef %87)
  %89 = icmp eq i32 %88, -1
  br i1 %89, label %90, label %91

90:                                               ; preds = %86
  store i32 -1, ptr %2, align 4
  store i32 1, ptr %5, align 4
  br label %169

91:                                               ; preds = %86
  %92 = load ptr, ptr %4, align 8, !tbaa !38
  %93 = getelementptr inbounds nuw %struct.z_stream_s, ptr %92, i32 0, i32 1
  %94 = load i32, ptr %93, align 8, !tbaa !46
  %95 = icmp eq i32 %94, 0
  br i1 %95, label %96, label %97

96:                                               ; preds = %91
  store i32 0, ptr %2, align 4
  store i32 1, ptr %5, align 4
  br label %169

97:                                               ; preds = %91
  br label %98

98:                                               ; preds = %97, %81
  %99 = load ptr, ptr %4, align 8, !tbaa !38
  %100 = getelementptr inbounds nuw %struct.z_stream_s, ptr %99, i32 0, i32 1
  %101 = load i32, ptr %100, align 8, !tbaa !46
  %102 = icmp ugt i32 %101, 1
  br i1 %102, label %103, label %126

103:                                              ; preds = %98
  %104 = load ptr, ptr %4, align 8, !tbaa !38
  %105 = getelementptr inbounds nuw %struct.z_stream_s, ptr %104, i32 0, i32 0
  %106 = load ptr, ptr %105, align 8, !tbaa !47
  %107 = getelementptr inbounds i8, ptr %106, i64 0
  %108 = load i8, ptr %107, align 1, !tbaa !34
  %109 = zext i8 %108 to i32
  %110 = icmp eq i32 %109, 31
  br i1 %110, label %111, label %126

111:                                              ; preds = %103
  %112 = load ptr, ptr %4, align 8, !tbaa !38
  %113 = getelementptr inbounds nuw %struct.z_stream_s, ptr %112, i32 0, i32 0
  %114 = load ptr, ptr %113, align 8, !tbaa !47
  %115 = getelementptr inbounds i8, ptr %114, i64 1
  %116 = load i8, ptr %115, align 1, !tbaa !34
  %117 = zext i8 %116 to i32
  %118 = icmp eq i32 %117, 139
  br i1 %118, label %119, label %126

119:                                              ; preds = %111
  %120 = load ptr, ptr %4, align 8, !tbaa !38
  %121 = call i32 @inflateReset(ptr noundef %120)
  %122 = load ptr, ptr %3, align 8, !tbaa !8
  %123 = getelementptr inbounds nuw %struct.gz_state, ptr %122, i32 0, i32 9
  store i32 2, ptr %123, align 4, !tbaa !27
  %124 = load ptr, ptr %3, align 8, !tbaa !8
  %125 = getelementptr inbounds nuw %struct.gz_state, ptr %124, i32 0, i32 8
  store i32 0, ptr %125, align 8, !tbaa !48
  store i32 0, ptr %2, align 4
  store i32 1, ptr %5, align 4
  br label %169

126:                                              ; preds = %111, %103, %98
  %127 = load ptr, ptr %3, align 8, !tbaa !8
  %128 = getelementptr inbounds nuw %struct.gz_state, ptr %127, i32 0, i32 8
  %129 = load i32, ptr %128, align 8, !tbaa !48
  %130 = icmp eq i32 %129, 0
  br i1 %130, label %131, label %139

131:                                              ; preds = %126
  %132 = load ptr, ptr %4, align 8, !tbaa !38
  %133 = getelementptr inbounds nuw %struct.z_stream_s, ptr %132, i32 0, i32 1
  store i32 0, ptr %133, align 8, !tbaa !46
  %134 = load ptr, ptr %3, align 8, !tbaa !8
  %135 = getelementptr inbounds nuw %struct.gz_state, ptr %134, i32 0, i32 11
  store i32 1, ptr %135, align 8, !tbaa !24
  %136 = load ptr, ptr %3, align 8, !tbaa !8
  %137 = getelementptr inbounds nuw %struct.gz_state, ptr %136, i32 0, i32 0
  %138 = getelementptr inbounds nuw %struct.gzFile_s, ptr %137, i32 0, i32 0
  store i32 0, ptr %138, align 8, !tbaa !22
  store i32 0, ptr %2, align 4
  store i32 1, ptr %5, align 4
  br label %169

139:                                              ; preds = %126
  %140 = load ptr, ptr %3, align 8, !tbaa !8
  %141 = getelementptr inbounds nuw %struct.gz_state, ptr %140, i32 0, i32 7
  %142 = load ptr, ptr %141, align 8, !tbaa !35
  %143 = load ptr, ptr %3, align 8, !tbaa !8
  %144 = getelementptr inbounds nuw %struct.gz_state, ptr %143, i32 0, i32 0
  %145 = getelementptr inbounds nuw %struct.gzFile_s, ptr %144, i32 0, i32 1
  store ptr %142, ptr %145, align 8, !tbaa !23
  %146 = load ptr, ptr %3, align 8, !tbaa !8
  %147 = getelementptr inbounds nuw %struct.gz_state, ptr %146, i32 0, i32 0
  %148 = getelementptr inbounds nuw %struct.gzFile_s, ptr %147, i32 0, i32 1
  %149 = load ptr, ptr %148, align 8, !tbaa !23
  %150 = load ptr, ptr %4, align 8, !tbaa !38
  %151 = getelementptr inbounds nuw %struct.z_stream_s, ptr %150, i32 0, i32 0
  %152 = load ptr, ptr %151, align 8, !tbaa !47
  %153 = load ptr, ptr %4, align 8, !tbaa !38
  %154 = getelementptr inbounds nuw %struct.z_stream_s, ptr %153, i32 0, i32 1
  %155 = load i32, ptr %154, align 8, !tbaa !46
  %156 = zext i32 %155 to i64
  call void @llvm.memcpy.p0.p0.i64(ptr align 1 %149, ptr align 1 %152, i64 %156, i1 false)
  %157 = load ptr, ptr %4, align 8, !tbaa !38
  %158 = getelementptr inbounds nuw %struct.z_stream_s, ptr %157, i32 0, i32 1
  %159 = load i32, ptr %158, align 8, !tbaa !46
  %160 = load ptr, ptr %3, align 8, !tbaa !8
  %161 = getelementptr inbounds nuw %struct.gz_state, ptr %160, i32 0, i32 0
  %162 = getelementptr inbounds nuw %struct.gzFile_s, ptr %161, i32 0, i32 0
  store i32 %159, ptr %162, align 8, !tbaa !22
  %163 = load ptr, ptr %4, align 8, !tbaa !38
  %164 = getelementptr inbounds nuw %struct.z_stream_s, ptr %163, i32 0, i32 1
  store i32 0, ptr %164, align 8, !tbaa !46
  %165 = load ptr, ptr %3, align 8, !tbaa !8
  %166 = getelementptr inbounds nuw %struct.gz_state, ptr %165, i32 0, i32 9
  store i32 1, ptr %166, align 4, !tbaa !27
  %167 = load ptr, ptr %3, align 8, !tbaa !8
  %168 = getelementptr inbounds nuw %struct.gz_state, ptr %167, i32 0, i32 8
  store i32 1, ptr %168, align 8, !tbaa !48
  store i32 0, ptr %2, align 4
  store i32 1, ptr %5, align 4
  br label %169

169:                                              ; preds = %139, %131, %119, %96, %90, %70, %37
  call void @llvm.lifetime.end.p0(i64 8, ptr %4) #8
  %170 = load i32, ptr %2, align 4
  ret i32 %170
}