; Function Attrs: nounwind uwtable
define internal fastcc range(i32 -1, 1) i32 @gz_look(ptr noundef nonnull %0) unnamed_addr #0 {
  %2 = getelementptr inbounds nuw i8, ptr %0, i64 128
  %3 = getelementptr inbounds nuw i8, ptr %0, i64 40
  %4 = load i32, ptr %3, align 8, !tbaa !26
  %5 = icmp eq i32 %4, 0
  br i1 %5, label %6, label %26

6:                                                ; preds = %1
  %7 = getelementptr inbounds nuw i8, ptr %0, i64 44
  %8 = load i32, ptr %7, align 4, !tbaa !36
  %9 = zext i32 %8 to i64
  %10 = tail call noalias ptr @malloc(i64 noundef %9) #14
  %11 = getelementptr inbounds nuw i8, ptr %0, i64 48
  store ptr %10, ptr %11, align 8, !tbaa !37
  %12 = shl i32 %8, 1
  %13 = zext i32 %12 to i64
  %14 = tail call noalias ptr @malloc(i64 noundef %13) #14
  %15 = getelementptr inbounds nuw i8, ptr %0, i64 56
  store ptr %14, ptr %15, align 8, !tbaa !34
  %16 = icmp eq ptr %10, null
  %17 = icmp eq ptr %14, null
  %or.cond = or i1 %16, %17
  br i1 %or.cond, label %18, label %19

18:                                               ; preds = %6
  tail call void @free(ptr noundef %14) #12
  tail call void @free(ptr noundef %10) #12
  tail call void @gz_error(ptr noundef nonnull %0, i32 noundef -4, ptr noundef nonnull @.str.5) #12
  br label %62

19:                                               ; preds = %6
  store i32 %8, ptr %3, align 8, !tbaa !26
  %20 = getelementptr inbounds nuw i8, ptr %0, i64 192
  %21 = getelementptr inbounds nuw i8, ptr %0, i64 136
  store i32 0, ptr %21, align 8, !tbaa !21
  store ptr null, ptr %2, align 8, !tbaa !38
  tail call void @llvm.memset.p0.i64(ptr noundef nonnull align 8 dereferenceable(24) %20, i8 0, i64 24, i1 false)
  %22 = tail call i32 @inflateInit2_(ptr noundef nonnull %2, i32 noundef 31, ptr noundef nonnull @.str.7, i32 noundef 112) #12
  %.not = icmp eq i32 %22, 0
  br i1 %.not, label %26, label %23

23:                                               ; preds = %19
  %24 = load ptr, ptr %15, align 8, !tbaa !34
  tail call void @free(ptr noundef %24) #12
  %25 = load ptr, ptr %11, align 8, !tbaa !37
  tail call void @free(ptr noundef %25) #12
  store i32 0, ptr %3, align 8, !tbaa !26
  tail call void @gz_error(ptr noundef nonnull %0, i32 noundef -4, ptr noundef nonnull @.str.5) #12
  br label %62

26:                                               ; preds = %19, %1
  %27 = getelementptr inbounds nuw i8, ptr %0, i64 136
  %28 = load i32, ptr %27, align 8, !tbaa !39
  %29 = icmp ult i32 %28, 2
  br i1 %29, label %30, label %.thread

30:                                               ; preds = %26
  %31 = tail call fastcc i32 @gz_avail(ptr noundef %0)
  %32 = icmp eq i32 %31, -1
  br i1 %32, label %62, label %33

33:                                               ; preds = %30
  %34 = load i32, ptr %27, align 8, !tbaa !39
  switch i32 %34, label %.thread [
    i32 0, label %62
    i32 1, label %47
  ]

.thread:                                          ; preds = %33, %26
  %35 = phi i32 [ %28, %26 ], [ %34, %33 ]
  %36 = load ptr, ptr %2, align 8, !tbaa !40
  %37 = load i8, ptr %36, align 1, !tbaa !33
  %38 = icmp eq i8 %37, 31
  br i1 %38, label %39, label %47

39:                                               ; preds = %.thread
  %40 = getelementptr inbounds nuw i8, ptr %36, i64 1
  %41 = load i8, ptr %40, align 1, !tbaa !33
  %42 = icmp eq i8 %41, -117
  br i1 %42, label %43, label %47

43:                                               ; preds = %39
  %44 = tail call i32 @inflateReset(ptr noundef nonnull %2) #12
  %45 = getelementptr inbounds nuw i8, ptr %0, i64 68
  store i32 2, ptr %45, align 4, !tbaa !25
  %46 = getelementptr inbounds nuw i8, ptr %0, i64 64
  store i32 0, ptr %46, align 8, !tbaa !41
  br label %62

47:                                               ; preds = %33, %39, %.thread
  %48 = phi i32 [ %35, %39 ], [ %35, %.thread ], [ %34, %33 ]
  %49 = getelementptr inbounds nuw i8, ptr %0, i64 64
  %50 = load i32, ptr %49, align 8, !tbaa !41
  %51 = icmp eq i32 %50, 0
  br i1 %51, label %52, label %54

52:                                               ; preds = %47
  store i32 0, ptr %27, align 8, !tbaa !39
  %53 = getelementptr inbounds nuw i8, ptr %0, i64 80
  store i32 1, ptr %53, align 8, !tbaa !20
  store i32 0, ptr %0, align 8, !tbaa !17
  br label %62

54:                                               ; preds = %47
  %55 = getelementptr inbounds nuw i8, ptr %0, i64 56
  %56 = load ptr, ptr %55, align 8, !tbaa !34
  %57 = getelementptr inbounds nuw i8, ptr %0, i64 8
  store ptr %56, ptr %57, align 8, !tbaa !18
  %58 = load ptr, ptr %2, align 8, !tbaa !40
  %59 = zext i32 %48 to i64
  tail call void @llvm.memcpy.p0.p0.i64(ptr align 1 %56, ptr align 1 %58, i64 %59, i1 false)
  %60 = load i32, ptr %27, align 8, !tbaa !39
  store i32 %60, ptr %0, align 8, !tbaa !17
  store i32 0, ptr %27, align 8, !tbaa !39
  %61 = getelementptr inbounds nuw i8, ptr %0, i64 68
  store i32 1, ptr %61, align 4, !tbaa !25
  store i32 1, ptr %49, align 8, !tbaa !41
  br label %62

62:                                               ; preds = %33, %30, %54, %52, %43, %23, %18
  %.0 = phi i32 [ -1, %18 ], [ -1, %23 ], [ 0, %43 ], [ 0, %52 ], [ 0, %54 ], [ -1, %30 ], [ %34, %33 ]
  ret i32 %.0
}